; Function Attrs: nounwind uwtable
define ptr @l___private_Lean_Elab_SyntheticMVars_0__Lean_Elab_Term_resumePostponed___lambda__1___boxed(ptr noundef %0, ptr noundef %1, ptr noundef %2, ptr noundef %3, ptr noundef %4, ptr noundef %5, ptr noundef %6, ptr noundef %7, ptr noundef %8, ptr noundef %9) #0 {
  %11 = ptrtoint ptr %2 to i64
  %12 = and i64 %11, 1
  %.not = icmp eq i64 %12, 0
  br i1 %.not, label %13, label %lean_dec.exit

13:                                               ; preds = %10
  %14 = load i32, ptr %2, align 4, !tbaa !7
  %15 = icmp sgt i32 %14, 1
  br i1 %15, label %16, label %18, !prof !12

16:                                               ; preds = %13
  %17 = add nsw i32 %14, -1
  store i32 %17, ptr %2, align 4, !tbaa !7
  br label %lean_dec.exit

18:                                               ; preds = %13
  %.not.i = icmp eq i32 %14, 0
  br i1 %.not.i, label %lean_dec.exit, label %19

19:                                               ; preds = %18
  tail call void @lean_dec_ref_cold(ptr noundef nonnull %2) #7
  br label %lean_dec.exit

lean_dec.exit:                                    ; preds = %19, %18, %16, %10
  %20 = lshr i64 %11, 1
  %21 = trunc i64 %20 to i8
  %22 = tail call ptr @l___private_Lean_Elab_SyntheticMVars_0__Lean_Elab_Term_resumePostponed___lambda__1(ptr noundef %0, ptr noundef %1, i8 noundef zeroext %21, ptr noundef %3, ptr noundef %4, ptr noundef %5, ptr noundef %6, ptr noundef %7, ptr noundef %8, ptr noundef %9)
  ret ptr %22
}